; Function Attrs: cold nounwind optsize uwtable
define internal void @dirac_decode_flush(ptr noundef readonly captures(none) %0) #0 {
  %2 = getelementptr inbounds nuw i8, ptr %0, i64 32
  %3 = load ptr, ptr %2, align 8, !tbaa !4
  tail call fastcc void @free_sequence_buffers(ptr noundef %3) #14
  %4 = getelementptr inbounds nuw i8, ptr %3, i64 560
  store i32 0, ptr %4, align 16, !tbaa !68
  %5 = getelementptr inbounds nuw i8, ptr %3, i64 568
  store i64 -1, ptr %5, align 8, !tbaa !40
  ret void
}